target datalayout = "e-m:e-p270:32:32-p271:32:32-p272:64:64-i64:64-i128:128-f80:128-n8:16:32:64-S128"
target triple = "x86_64-pc-linux-gnu"

%struct.DecodedFrames = type { ptr, i64, i64 }
%struct.AVCodecContext = type { ptr, i32, i32, ptr, i32, i32, ptr, ptr, ptr, i64, i32, i32, ptr, i32, %struct.AVRational, %struct.AVRational, %struct.AVRational, i32, i32, i32, i32, i32, %struct.AVRational, i32, i32, i32, i32, i32, i32, i32, i32, i32, i32, i32, ptr, ptr, i32, float, float, float, float, float, float, float, float, float, i32, i32, i32, i32, i32, i32, i32, i32, i32, i32, i32, i32, ptr, ptr, ptr, i32, i32, i32, i32, i32, i32, i32, i32, i32, i32, %struct.AVChannelLayout, i32, i32, i32, i32, i32, i32, i32, i32, ptr, i32, i32, i32, float, float, i32, i32, i32, i32, i32, ptr, i64, i64, float, float, i32, i32, ptr, ptr, i32, i32, i32, i32, i32, ptr, ptr, ptr, ptr, i32, i32, [8 x i64], i32, i32, i32, i32, i32, i32, i32, ptr, ptr, i32, i32, i32, i32, i32, i32, i32, i32, i32, i32, ptr, ptr, i32, i32, ptr, ptr, ptr, ptr, i32, i32, i64, i32, i32, i64, ptr, i64, ptr, i32, ptr, i32 }
%struct.AVRational = type { i32, i32 }
%struct.AVChannelLayout = type { i32, i32, %union.anon, ptr }
%union.anon = type { i64 }
%struct.AVCodecInternal = type { i32, i32, i32, ptr, ptr, ptr, ptr, ptr, ptr, ptr, i32, ptr, ptr, ptr, i32, i32, ptr, i32, ptr, ptr, i32, i32 }
%struct.FrameThreadContext = type { ptr, ptr, i32, %union.pthread_mutex_t, %union.pthread_mutex_t, %union.pthread_mutex_t, %union.pthread_cond_t, i32, %struct.DecodedFrames, i32, ptr, i32, i32, ptr, ptr, ptr }
%union.pthread_mutex_t = type { %struct.__pthread_mutex_s }
%struct.__pthread_mutex_s = type { i32, i32, i32, i32, i32, i16, i16, %struct.__pthread_internal_list }
%struct.__pthread_internal_list = type { ptr, ptr }
%union.pthread_cond_t = type { %struct.__pthread_cond_s }
%struct.__pthread_cond_s = type { %union.__atomic_wide_counter, %union.__atomic_wide_counter, [2 x i32], [2 x i32], i32, i32, [2 x i32] }
%union.__atomic_wide_counter = type { i64 }
%struct.PerThreadContext = type { ptr, i64, i32, i32, %union.pthread_cond_t, %union.pthread_cond_t, %union.pthread_cond_t, %union.pthread_mutex_t, %union.pthread_mutex_t, ptr, ptr, %struct.DecodedFrames, i32, i32, i32, i32, i32, i32, i32, i32, i32 }
%struct.AVCodec = type { ptr, ptr, i32, i32, i32, i8, ptr, ptr, ptr, ptr, ptr, ptr, ptr, ptr }
%struct.FFCodec = type { %struct.AVCodec, i32, i32, ptr, ptr, ptr, ptr, %union.anon.0, ptr, ptr, ptr, ptr, ptr, ptr }
%union.anon.0 = type { ptr }

@thread_ctx_offsets = internal constant [7 x i32] [i32 16, i32 24, i32 64, i32 104, i32 0, i32 144, i32 0], align 16

; Function Attrs: alwaysinline nounwind uwtable
define internal ptr @ffcodec(ptr noundef %0) #8 {
  %2 = alloca ptr, align 8
  store ptr %0, ptr %2, align 8, !tbaa !68
  %3 = load ptr, ptr %2, align 8, !tbaa !68
  ret ptr %3
}

; Function Attrs: cold nounwind optsize uwtable
define i32 @ff_frame_thread_init(ptr noundef %0) #7 {
  %2 = alloca i32, align 4
  %3 = alloca ptr, align 8
  %4 = alloca i32, align 4
  %5 = alloca ptr, align 8
  %6 = alloca ptr, align 8
  %7 = alloca i32, align 4
  %8 = alloca i32, align 4
  %9 = alloca i32, align 4
  %10 = alloca i32, align 4
  %11 = alloca ptr, align 8
  %12 = alloca i32, align 4
  store ptr %0, ptr %3, align 8, !tbaa !4
  call void @llvm.lifetime.start.p0(i64 4, ptr %4) #9
  %13 = load ptr, ptr %3, align 8, !tbaa !4
  %14 = getelementptr inbounds nuw %struct.AVCodecContext, ptr %13, i32 0, i32 116
  %15 = load i32, ptr %14, align 8, !tbaa !54
  store i32 %15, ptr %4, align 4, !tbaa !39
  call void @llvm.lifetime.start.p0(i64 8, ptr %5) #9
  %16 = load ptr, ptr %3, align 8, !tbaa !4
  %17 = getelementptr inbounds nuw %struct.AVCodecContext, ptr %16, i32 0, i32 3
  %18 = load ptr, ptr %17, align 8, !tbaa !67
  %19 = call ptr @ffcodec(ptr noundef %18)
  store ptr %19, ptr %5, align 8, !tbaa !89
  call void @llvm.lifetime.start.p0(i64 8, ptr %6) #9
  call void @llvm.lifetime.start.p0(i64 4, ptr %7) #9
  call void @llvm.lifetime.start.p0(i64 4, ptr %8) #9
  store i32 0, ptr %8, align 4, !tbaa !39
  %20 = load i32, ptr %4, align 4, !tbaa !39
  %21 = icmp ne i32 %20, 0
  br i1 %21, label %42, label %22

22:                                               ; preds = %1
  call void @llvm.lifetime.start.p0(i64 4, ptr %9) #9
  %23 = call i32 @av_cpu_count()
  store i32 %23, ptr %9, align 4, !tbaa !39
  %24 = load i32, ptr %9, align 4, !tbaa !39
  %25 = icmp sgt i32 %24, 1
  br i1 %25, label %26, label %38

26:                                               ; preds = %22
  %27 = load i32, ptr %9, align 4, !tbaa !39
  %28 = add nsw i32 %27, 1
  %29 = icmp sgt i32 %28, 16
  br i1 %29, label %30, label %31

30:                                               ; preds = %26
  br label %34

31:                                               ; preds = %26
  %32 = load i32, ptr %9, align 4, !tbaa !39
  %33 = add nsw i32 %32, 1
  br label %34

34:                                               ; preds = %31, %30
  %35 = phi i32 [ 16, %30 ], [ %33, %31 ]
  %36 = load ptr, ptr %3, align 8, !tbaa !4
  %37 = getelementptr inbounds nuw %struct.AVCodecContext, ptr %36, i32 0, i32 116
  store i32 %35, ptr %37, align 8, !tbaa !54
  store i32 %35, ptr %4, align 4, !tbaa !39
  br label %41

38:                                               ; preds = %22
  %39 = load ptr, ptr %3, align 8, !tbaa !4
  %40 = getelementptr inbounds nuw %struct.AVCodecContext, ptr %39, i32 0, i32 116
  store i32 1, ptr %40, align 8, !tbaa !54
  store i32 1, ptr %4, align 4, !tbaa !39
  br label %41

41:                                               ; preds = %38, %34
  call void @llvm.lifetime.end.p0(i64 4, ptr %9) #9
  br label %42

42:                                               ; preds = %41, %1
  %43 = load i32, ptr %4, align 4, !tbaa !39
  %44 = icmp sle i32 %43, 1
  br i1 %44, label %45, label %48

45:                                               ; preds = %42
  %46 = load ptr, ptr %3, align 8, !tbaa !4
  %47 = getelementptr inbounds nuw %struct.AVCodecContext, ptr %46, i32 0, i32 118
  store i32 0, ptr %47, align 8, !tbaa !140
  store i32 0, ptr %2, align 4
  store i32 1, ptr %10, align 4
  br label %138

48:                                               ; preds = %42
  %49 = call noalias ptr @av_mallocz(i64 noundef 272)
  store ptr %49, ptr %6, align 8, !tbaa !37
  %50 = load ptr, ptr %3, align 8, !tbaa !4
  %51 = getelementptr inbounds nuw %struct.AVCodecContext, ptr %50, i32 0, i32 7
  %52 = load ptr, ptr %51, align 8, !tbaa !11
  %53 = getelementptr inbounds nuw %struct.AVCodecInternal, ptr %52, i32 0, i32 5
  store ptr %49, ptr %53, align 8, !tbaa !31
  %54 = load ptr, ptr %6, align 8, !tbaa !37
  %55 = icmp ne ptr %54, null
  br i1 %55, label %57, label %56

56:                                               ; preds = %48
  store i32 -12, ptr %2, align 4
  store i32 1, ptr %10, align 4
  br label %138

57:                                               ; preds = %48
  %58 = load ptr, ptr %6, align 8, !tbaa !37
  %59 = call i32 @ff_pthread_init(ptr noundef %58, ptr noundef @thread_ctx_offsets)
  store i32 %59, ptr %7, align 4, !tbaa !39
  %60 = load i32, ptr %7, align 4, !tbaa !39
  %61 = icmp slt i32 %60, 0
  br i1 %61, label %62, label %69

62:                                               ; preds = %57
  %63 = load ptr, ptr %6, align 8, !tbaa !37
  call void @ff_pthread_free(ptr noundef %63, ptr noundef @thread_ctx_offsets)
  %64 = load ptr, ptr %3, align 8, !tbaa !4
  %65 = getelementptr inbounds nuw %struct.AVCodecContext, ptr %64, i32 0, i32 7
  %66 = load ptr, ptr %65, align 8, !tbaa !11
  %67 = getelementptr inbounds nuw %struct.AVCodecInternal, ptr %66, i32 0, i32 5
  call void @av_freep(ptr noundef %67)
  %68 = load i32, ptr %7, align 4, !tbaa !39
  store i32 %68, ptr %2, align 4
  store i32 1, ptr %10, align 4
  br label %138

69:                                               ; preds = %57
  %70 = call ptr @av_packet_alloc()
  %71 = load ptr, ptr %6, align 8, !tbaa !37
  %72 = getelementptr inbounds nuw %struct.FrameThreadContext, ptr %71, i32 0, i32 10
  store ptr %70, ptr %72, align 8, !tbaa !46
  %73 = load ptr, ptr %6, align 8, !tbaa !37
  %74 = getelementptr inbounds nuw %struct.FrameThreadContext, ptr %73, i32 0, i32 10
  %75 = load ptr, ptr %74, align 8, !tbaa !46
  %76 = icmp ne ptr %75, null
  br i1 %76, label %78, label %77

77:                                               ; preds = %69
  store i32 -12, ptr %2, align 4
  store i32 1, ptr %10, align 4
  br label %138

78:                                               ; preds = %69
  %79 = load ptr, ptr %6, align 8, !tbaa !37
  %80 = getelementptr inbounds nuw %struct.FrameThreadContext, ptr %79, i32 0, i32 7
  store i32 1, ptr %80, align 8, !tbaa !63
  %81 = load ptr, ptr %5, align 8, !tbaa !89
  %82 = getelementptr inbounds nuw %struct.FFCodec, ptr %81, i32 0, i32 0
  %83 = getelementptr inbounds nuw %struct.AVCodec, ptr %82, i32 0, i32 2
  %84 = load i32, ptr %83, align 8, !tbaa !155
  %85 = icmp eq i32 %84, 0
  br i1 %85, label %86, label %93

86:                                               ; preds = %78
  %87 = load ptr, ptr %3, align 8, !tbaa !4
  %88 = getelementptr inbounds nuw %struct.AVCodecContext, ptr %87, i32 0, i32 116
  %89 = load i32, ptr %88, align 8, !tbaa !54
  %90 = sub nsw i32 %89, 1
  %91 = load ptr, ptr %3, align 8, !tbaa !4
  %92 = getelementptr inbounds nuw %struct.AVCodecContext, ptr %91, i32 0, i32 17
  store i32 %90, ptr %92, align 4, !tbaa !156
  br label %93

93:                                               ; preds = %86, %78
  %94 = load i32, ptr %4, align 4, !tbaa !39
  %95 = sext i32 %94 to i64
  %96 = call noalias ptr @av_calloc(i64 noundef %95, i64 noundef 328)
  %97 = load ptr, ptr %6, align 8, !tbaa !37
  %98 = getelementptr inbounds nuw %struct.FrameThreadContext, ptr %97, i32 0, i32 0
  store ptr %96, ptr %98, align 8, !tbaa !47
  %99 = load ptr, ptr %6, align 8, !tbaa !37
  %100 = getelementptr inbounds nuw %struct.FrameThreadContext, ptr %99, i32 0, i32 0
  %101 = load ptr, ptr %100, align 8, !tbaa !47
  %102 = icmp ne ptr %101, null
  br i1 %102, label %104, label %103

103:                                              ; preds = %93
  store i32 -12, ptr %7, align 4, !tbaa !39
  br label %134

104:                                              ; preds = %93
  br label %105

105:                                              ; preds = %132, %104
  %106 = load i32, ptr %8, align 4, !tbaa !39
  %107 = load i32, ptr %4, align 4, !tbaa !39
  %108 = icmp slt i32 %106, %107
  br i1 %108, label %109, label %133

109:                                              ; preds = %105
  call void @llvm.lifetime.start.p0(i64 8, ptr %11) #9
  %110 = load ptr, ptr %6, align 8, !tbaa !37
  %111 = getelementptr inbounds nuw %struct.FrameThreadContext, ptr %110, i32 0, i32 0
  %112 = load ptr, ptr %111, align 8, !tbaa !47
  %113 = load i32, ptr %8, align 4, !tbaa !39
  %114 = sext i32 %113 to i64
  %115 = getelementptr inbounds %struct.PerThreadContext, ptr %112, i64 %114
  store ptr %115, ptr %11, align 8, !tbaa !53
  call void @llvm.lifetime.start.p0(i64 4, ptr %12) #9
  %116 = load i32, ptr %8, align 4, !tbaa !39
  %117 = icmp ne i32 %116, 0
  %118 = xor i1 %117, true
  %119 = zext i1 %118 to i32
  store i32 %119, ptr %12, align 4, !tbaa !39
  %120 = load ptr, ptr %11, align 8, !tbaa !53
  %121 = load ptr, ptr %6, align 8, !tbaa !37
  %122 = load ptr, ptr %3, align 8, !tbaa !4
  %123 = load ptr, ptr %5, align 8, !tbaa !89
  %124 = load i32, ptr %12, align 4, !tbaa !39
  %125 = call i32 @init_thread(ptr noundef %120, ptr noundef %8, ptr noundef %121, ptr noundef %122, ptr noundef %123, i32 noundef %124) #11
  store i32 %125, ptr %7, align 4, !tbaa !39
  %126 = load i32, ptr %7, align 4, !tbaa !39
  %127 = icmp slt i32 %126, 0
  br i1 %127, label %128, label %129

128:                                              ; preds = %109
  store i32 2, ptr %10, align 4
  br label %130

129:                                              ; preds = %109
  store i32 0, ptr %10, align 4
  br label %130

130:                                              ; preds = %128, %129
  call void @llvm.lifetime.end.p0(i64 4, ptr %12) #9
  call void @llvm.lifetime.end.p0(i64 8, ptr %11) #9
  %131 = load i32, ptr %10, align 4
  switch i32 %131, label %138 [
    i32 0, label %132
    i32 2, label %134
  ]

132:                                              ; preds = %130
  br label %105, !llvm.loop !157

133:                                              ; preds = %105
  store i32 0, ptr %2, align 4
  store i32 1, ptr %10, align 4
  br label %138

134:                                              ; preds = %130, %103
  %135 = load ptr, ptr %3, align 8, !tbaa !4
  %136 = load i32, ptr %8, align 4, !tbaa !39
  call void @ff_frame_thread_free(ptr noundef %135, i32 noundef %136) #11
  %137 = load i32, ptr %7, align 4, !tbaa !39
  store i32 %137, ptr %2, align 4
  store i32 1, ptr %10, align 4
  br label %138

138:                                              ; preds = %134, %133, %130, %77, %62, %56, %45
  call void @llvm.lifetime.end.p0(i64 4, ptr %8) #9
  call void @llvm.lifetime.end.p0(i64 4, ptr %7) #9
  call void @llvm.lifetime.end.p0(i64 8, ptr %6) #9
  call void @llvm.lifetime.end.p0(i64 8, ptr %5) #9
  call void @llvm.lifetime.end.p0(i64 4, ptr %4) #9
  %139 = load i32, ptr %2, align 4
  ret i32 %139
}