; Function Attrs: cold nounwind optsize uwtable
define range(i32 -2147483648, 1) i32 @ff_frame_thread_init(ptr noundef %0) local_unnamed_addr #6 {
  %2 = alloca i32, align 4
  %3 = getelementptr inbounds nuw i8, ptr %0, i64 656
  %4 = load i32, ptr %3, align 8, !tbaa !83
  %5 = getelementptr inbounds nuw i8, ptr %0, i64 16
  %6 = load ptr, ptr %5, align 8, !tbaa !50
  call void @llvm.lifetime.start.p0(i64 4, ptr nonnull %2) #11
  store i32 0, ptr %2, align 4, !tbaa !151
  %.not = icmp eq i32 %4, 0
  br i1 %.not, label %7, label %12

7:                                                ; preds = %1
  %8 = tail call i32 @av_cpu_count() #11
  %9 = icmp sgt i32 %8, 1
  %10 = tail call i32 @llvm.smin.i32(i32 %8, i32 15)
  %11 = add nuw nsw i32 %10, 1
  %storemerge = select i1 %9, i32 %11, i32 1
  store i32 %storemerge, ptr %3, align 8, !tbaa !83
  br label %12

12:                                               ; preds = %7, %1
  %.037 = phi i32 [ %4, %1 ], [ %storemerge, %7 ]
  %13 = icmp slt i32 %.037, 2
  br i1 %13, label %14, label %16

14:                                               ; preds = %12
  %15 = getelementptr inbounds nuw i8, ptr %0, i64 664
  store i32 0, ptr %15, align 8, !tbaa !136
  br label %.loopexit

16:                                               ; preds = %12
  %17 = tail call noalias ptr @av_mallocz(i64 noundef 272) #11
  %18 = getelementptr inbounds nuw i8, ptr %0, i64 40
  %19 = load ptr, ptr %18, align 8, !tbaa !4
  %20 = getelementptr inbounds nuw i8, ptr %19, i64 32
  store ptr %17, ptr %20, align 8, !tbaa !27
  %.not45 = icmp eq ptr %17, null
  br i1 %.not45, label %.loopexit, label %21

21:                                               ; preds = %16
  %22 = tail call i32 @ff_pthread_init(ptr noundef nonnull %17, ptr noundef nonnull @thread_ctx_offsets) #11
  %23 = icmp slt i32 %22, 0
  br i1 %23, label %24, label %27

24:                                               ; preds = %21
  tail call void @ff_pthread_free(ptr noundef nonnull %17, ptr noundef nonnull @thread_ctx_offsets) #11
  %25 = load ptr, ptr %18, align 8, !tbaa !4
  %26 = getelementptr inbounds nuw i8, ptr %25, i64 32
  tail call void @av_freep(ptr noundef nonnull %26) #11
  br label %.loopexit

27:                                               ; preds = %21
  %28 = tail call ptr @av_packet_alloc() #11
  %29 = getelementptr inbounds nuw i8, ptr %17, i64 232
  store ptr %28, ptr %29, align 8, !tbaa !41
  %.not46 = icmp eq ptr %28, null
  br i1 %.not46, label %.loopexit, label %30

30:                                               ; preds = %27
  %31 = getelementptr inbounds nuw i8, ptr %17, i64 192
  store i32 1, ptr %31, align 8, !tbaa !34
  %32 = getelementptr inbounds nuw i8, ptr %6, i64 16
  %33 = load i32, ptr %32, align 8, !tbaa !152
  %34 = icmp eq i32 %33, 0
  br i1 %34, label %35, label %39

35:                                               ; preds = %30
  %36 = load i32, ptr %3, align 8, !tbaa !83
  %37 = add nsw i32 %36, -1
  %38 = getelementptr inbounds nuw i8, ptr %0, i64 108
  store i32 %37, ptr %38, align 4, !tbaa !153
  br label %39

39:                                               ; preds = %35, %30
  %40 = zext nneg i32 %.037 to i64
  %41 = tail call noalias ptr @av_calloc(i64 noundef %40, i64 noundef 328) #11
  store ptr %41, ptr %17, align 8, !tbaa !42
  %.not47 = icmp eq ptr %41, null
  br i1 %.not47, label %.loopexit49, label %.preheader

.preheader:                                       ; preds = %39, %44
  %42 = load i32, ptr %2, align 4, !tbaa !151
  %43 = icmp slt i32 %42, %.037
  br i1 %43, label %44, label %.loopexit

44:                                               ; preds = %.preheader
  %45 = load ptr, ptr %17, align 8, !tbaa !42
  %46 = sext i32 %42 to i64
  %47 = getelementptr inbounds %struct.PerThreadContext, ptr %45, i64 %46
  %.not48 = icmp eq i32 %42, 0
  %48 = zext i1 %.not48 to i32
  %49 = call fastcc i32 @init_thread(ptr noundef %47, ptr noundef %2, ptr noundef %17, ptr noundef %0, ptr noundef %6, i32 noundef %48) #13
  %50 = icmp slt i32 %49, 0
  br i1 %50, label %.loopexit49.loopexit, label %.preheader

.loopexit49.loopexit:                             ; preds = %44
  %.pre = load i32, ptr %2, align 4, !tbaa !151
  br label %.loopexit49

.loopexit49:                                      ; preds = %.loopexit49.loopexit, %39
  %51 = phi i32 [ 0, %39 ], [ %.pre, %.loopexit49.loopexit ]
  %.039 = phi i32 [ -12, %39 ], [ %49, %.loopexit49.loopexit ]
  tail call void @ff_frame_thread_free(ptr noundef %0, i32 noundef %51) #13
  br label %.loopexit

.loopexit:                                        ; preds = %.preheader, %27, %16, %.loopexit49, %24, %14
  %.0 = phi i32 [ 0, %14 ], [ %22, %24 ], [ %.039, %.loopexit49 ], [ -12, %16 ], [ -12, %27 ], [ 0, %.preheader ]
  call void @llvm.lifetime.end.p0(i64 4, ptr nonnull %2) #11
  ret i32 %.0
}